target datalayout = "e-m:e-p270:32:32-p271:32:32-p272:64:64-i64:64-i128:128-f80:128-n8:16:32:64-S128"
target triple = "x86_64-pc-linux-gnu"

%"class.std::vector.8" = type { %"struct.std::_Vector_base.9" }
%"struct.std::_Vector_base.9" = type { %"struct.std::_Vector_base<std::unique_ptr<osgeo::proj::GenericShiftGridSet>, std::allocator<std::unique_ptr<osgeo::proj::GenericShiftGridSet>>>::_Vector_impl" }
%"struct.std::_Vector_base<std::unique_ptr<osgeo::proj::GenericShiftGridSet>, std::allocator<std::unique_ptr<osgeo::proj::GenericShiftGridSet>>>::_Vector_impl" = type { %"struct.std::_Vector_base<std::unique_ptr<osgeo::proj::GenericShiftGridSet>, std::allocator<std::unique_ptr<osgeo::proj::GenericShiftGridSet>>>::_Vector_impl_data" }
%"struct.std::_Vector_base<std::unique_ptr<osgeo::proj::GenericShiftGridSet>, std::allocator<std::unique_ptr<osgeo::proj::GenericShiftGridSet>>>::_Vector_impl_data" = type { ptr, ptr, ptr }
%"struct.(anonymous namespace)::xyzgridshiftData" = type { ptr, i8, %"class.std::vector.8", i8, i32, double }
%struct.PJ_XYZ = type { double, double, double }
%struct.PJ_LPZ = type { double, double, double }
%union.PJ_COORD = type { [4 x double] }

; Function Attrs: mustprogress uwtable
define internal void @_ZL20iterative_adjustmentP8PJconstsPN12_GLOBAL__N_116xyzgridshiftDataERK8PJ_COORDd(ptr dead_on_unwind noalias writable sret(%union.PJ_COORD) align 8 %0, ptr noundef %1, ptr noundef %2, ptr noundef nonnull align 8 dereferenceable(32) %3, double noundef %4) #0 {
  %6 = alloca ptr, align 8
  %7 = alloca ptr, align 8
  %8 = alloca ptr, align 8
  %9 = alloca double, align 8
  %10 = alloca %union.PJ_COORD, align 8
  %11 = alloca i32, align 4
  %12 = alloca i32, align 4
  %13 = alloca %union.PJ_COORD, align 8
  %14 = alloca %struct.PJ_LPZ, align 8
  %15 = alloca %struct.PJ_XYZ, align 8
  %16 = alloca double, align 8
  %17 = alloca double, align 8
  %18 = alloca double, align 8
  %19 = alloca double, align 8
  store ptr %1, ptr %6, align 8, !tbaa !3
  store ptr %2, ptr %7, align 8, !tbaa !41
  store ptr %3, ptr %8, align 8, !tbaa !130
  store double %4, ptr %9, align 8, !tbaa !101
  call void @llvm.lifetime.start.p0(i64 32, ptr %10) #14
  %20 = load ptr, ptr %8, align 8, !tbaa !130
  call void @llvm.memcpy.p0.p0.i64(ptr align 8 %10, ptr align 8 %20, i64 32, i1 false), !tbaa.struct !102
  call void @llvm.lifetime.start.p0(i64 4, ptr %11) #14
  store i32 0, ptr %11, align 4, !tbaa !93
  br label %21

21:                                               ; preds = %120, %5
  %22 = load i32, ptr %11, align 4, !tbaa !93
  %23 = icmp slt i32 %22, 10
  br i1 %23, label %25, label %24

24:                                               ; preds = %21
  store i32 2, ptr %12, align 4
  br label %123

25:                                               ; preds = %21
  call void @llvm.lifetime.start.p0(i64 32, ptr %13) #14
  call void @llvm.lifetime.start.p0(i64 24, ptr %14) #14
  call void @llvm.memcpy.p0.p0.i64(ptr align 8 %15, ptr align 8 %10, i64 24, i1 false), !tbaa.struct !100
  %26 = load ptr, ptr %7, align 8, !tbaa !41
  %27 = getelementptr inbounds nuw %"struct.(anonymous namespace)::xyzgridshiftData", ptr %26, i32 0, i32 0
  %28 = load ptr, ptr %27, align 8, !tbaa !53
  call void @_Z8pj_inv3d6PJ_XYZP8PJconsts(ptr dead_on_unwind writable sret(%struct.PJ_LPZ) align 8 %14, ptr noundef byval(%struct.PJ_XYZ) align 8 %15, ptr noundef %28)
  call void @llvm.memcpy.p0.p0.i64(ptr align 8 %13, ptr align 8 %14, i64 24, i1 false), !tbaa.struct !100
  call void @llvm.lifetime.end.p0(i64 24, ptr %14) #14
  call void @llvm.lifetime.start.p0(i64 8, ptr %16) #14
  call void @llvm.lifetime.start.p0(i64 8, ptr %17) #14
  call void @llvm.lifetime.start.p0(i64 8, ptr %18) #14
  %29 = load ptr, ptr %6, align 8, !tbaa !3
  %30 = load ptr, ptr %7, align 8, !tbaa !41
  %31 = call noundef zeroext i1 @_ZL15get_grid_valuesP8PJconstsPN12_GLOBAL__N_116xyzgridshiftDataERK5PJ_LPRdS7_S7_(ptr noundef %29, ptr noundef %30, ptr noundef nonnull align 8 dereferenceable(16) %13, ptr noundef nonnull align 8 dereferenceable(8) %16, ptr noundef nonnull align 8 dereferenceable(8) %17, ptr noundef nonnull align 8 dereferenceable(8) %18)
  br i1 %31, label %33, label %32

32:                                               ; preds = %25
  call void @_Z16proj_coord_errorv(ptr dead_on_unwind writable sret(%union.PJ_COORD) align 8 %0)
  store i32 1, ptr %12, align 4
  br label %117

33:                                               ; preds = %25
  %34 = load double, ptr %9, align 8, !tbaa !101
  %35 = load double, ptr %16, align 8, !tbaa !101
  %36 = fmul double %35, %34
  store double %36, ptr %16, align 8, !tbaa !101
  %37 = load double, ptr %9, align 8, !tbaa !101
  %38 = load double, ptr %17, align 8, !tbaa !101
  %39 = fmul double %38, %37
  store double %39, ptr %17, align 8, !tbaa !101
  %40 = load double, ptr %9, align 8, !tbaa !101
  %41 = load double, ptr %18, align 8, !tbaa !101
  %42 = fmul double %41, %40
  store double %42, ptr %18, align 8, !tbaa !101
  call void @llvm.lifetime.start.p0(i64 8, ptr %19) #14
  %43 = getelementptr inbounds nuw %struct.PJ_XYZ, ptr %10, i32 0, i32 0
  %44 = load double, ptr %43, align 8, !tbaa !61
  %45 = load ptr, ptr %8, align 8, !tbaa !130
  %46 = getelementptr inbounds nuw %struct.PJ_XYZ, ptr %45, i32 0, i32 0
  %47 = load double, ptr %46, align 8, !tbaa !61
  %48 = fsub double %44, %47
  %49 = load double, ptr %16, align 8, !tbaa !101
  %50 = fsub double %48, %49
  %51 = getelementptr inbounds nuw %struct.PJ_XYZ, ptr %10, i32 0, i32 0
  %52 = load double, ptr %51, align 8, !tbaa !61
  %53 = load ptr, ptr %8, align 8, !tbaa !130
  %54 = getelementptr inbounds nuw %struct.PJ_XYZ, ptr %53, i32 0, i32 0
  %55 = load double, ptr %54, align 8, !tbaa !61
  %56 = fsub double %52, %55
  %57 = load double, ptr %16, align 8, !tbaa !101
  %58 = fsub double %56, %57
  %59 = getelementptr inbounds nuw %struct.PJ_XYZ, ptr %10, i32 0, i32 1
  %60 = load double, ptr %59, align 8, !tbaa !61
  %61 = load ptr, ptr %8, align 8, !tbaa !130
  %62 = getelementptr inbounds nuw %struct.PJ_XYZ, ptr %61, i32 0, i32 1
  %63 = load double, ptr %62, align 8, !tbaa !61
  %64 = fsub double %60, %63
  %65 = load double, ptr %17, align 8, !tbaa !101
  %66 = fsub double %64, %65
  %67 = getelementptr inbounds nuw %struct.PJ_XYZ, ptr %10, i32 0, i32 1
  %68 = load double, ptr %67, align 8, !tbaa !61
  %69 = load ptr, ptr %8, align 8, !tbaa !130
  %70 = getelementptr inbounds nuw %struct.PJ_XYZ, ptr %69, i32 0, i32 1
  %71 = load double, ptr %70, align 8, !tbaa !61
  %72 = fsub double %68, %71
  %73 = load double, ptr %17, align 8, !tbaa !101
  %74 = fsub double %72, %73
  %75 = fmul double %66, %74
  %76 = call double @llvm.fmuladd.f64(double %50, double %58, double %75)
  %77 = getelementptr inbounds nuw %struct.PJ_XYZ, ptr %10, i32 0, i32 2
  %78 = load double, ptr %77, align 8, !tbaa !61
  %79 = load ptr, ptr %8, align 8, !tbaa !130
  %80 = getelementptr inbounds nuw %struct.PJ_XYZ, ptr %79, i32 0, i32 2
  %81 = load double, ptr %80, align 8, !tbaa !61
  %82 = fsub double %78, %81
  %83 = load double, ptr %18, align 8, !tbaa !101
  %84 = fsub double %82, %83
  %85 = getelementptr inbounds nuw %struct.PJ_XYZ, ptr %10, i32 0, i32 2
  %86 = load double, ptr %85, align 8, !tbaa !61
  %87 = load ptr, ptr %8, align 8, !tbaa !130
  %88 = getelementptr inbounds nuw %struct.PJ_XYZ, ptr %87, i32 0, i32 2
  %89 = load double, ptr %88, align 8, !tbaa !61
  %90 = fsub double %86, %89
  %91 = load double, ptr %18, align 8, !tbaa !101
  %92 = fsub double %90, %91
  %93 = call double @llvm.fmuladd.f64(double %84, double %92, double %76)
  store double %93, ptr %19, align 8, !tbaa !101
  %94 = load ptr, ptr %8, align 8, !tbaa !130
  %95 = getelementptr inbounds nuw %struct.PJ_XYZ, ptr %94, i32 0, i32 0
  %96 = load double, ptr %95, align 8, !tbaa !61
  %97 = load double, ptr %16, align 8, !tbaa !101
  %98 = fadd double %96, %97
  %99 = getelementptr inbounds nuw %struct.PJ_XYZ, ptr %10, i32 0, i32 0
  store double %98, ptr %99, align 8, !tbaa !61
  %100 = load ptr, ptr %8, align 8, !tbaa !130
  %101 = getelementptr inbounds nuw %struct.PJ_XYZ, ptr %100, i32 0, i32 1
  %102 = load double, ptr %101, align 8, !tbaa !61
  %103 = load double, ptr %17, align 8, !tbaa !101
  %104 = fadd double %102, %103
  %105 = getelementptr inbounds nuw %struct.PJ_XYZ, ptr %10, i32 0, i32 1
  store double %104, ptr %105, align 8, !tbaa !61
  %106 = load ptr, ptr %8, align 8, !tbaa !130
  %107 = getelementptr inbounds nuw %struct.PJ_XYZ, ptr %106, i32 0, i32 2
  %108 = load double, ptr %107, align 8, !tbaa !61
  %109 = load double, ptr %18, align 8, !tbaa !101
  %110 = fadd double %108, %109
  %111 = getelementptr inbounds nuw %struct.PJ_XYZ, ptr %10, i32 0, i32 2
  store double %110, ptr %111, align 8, !tbaa !61
  %112 = load double, ptr %19, align 8, !tbaa !101
  %113 = fcmp olt double %112, 1.000000e-10
  br i1 %113, label %114, label %115

114:                                              ; preds = %33
  store i32 2, ptr %12, align 4
  br label %116

115:                                              ; preds = %33
  store i32 0, ptr %12, align 4
  br label %116

116:                                              ; preds = %115, %114
  call void @llvm.lifetime.end.p0(i64 8, ptr %19) #14
  br label %117

117:                                              ; preds = %116, %32
  call void @llvm.lifetime.end.p0(i64 8, ptr %18) #14
  call void @llvm.lifetime.end.p0(i64 8, ptr %17) #14
  call void @llvm.lifetime.end.p0(i64 8, ptr %16) #14
  call void @llvm.lifetime.end.p0(i64 32, ptr %13) #14
  %118 = load i32, ptr %12, align 4
  switch i32 %118, label %123 [
    i32 0, label %119
  ]

119:                                              ; preds = %117
  br label %120

120:                                              ; preds = %119
  %121 = load i32, ptr %11, align 4, !tbaa !93
  %122 = add nsw i32 %121, 1
  store i32 %122, ptr %11, align 4, !tbaa !93
  br label %21, !llvm.loop !132

123:                                              ; preds = %117, %24
  call void @llvm.lifetime.end.p0(i64 4, ptr %11) #14
  %124 = load i32, ptr %12, align 4
  switch i32 %124, label %126 [
    i32 2, label %125
  ]

125:                                              ; preds = %123
  call void @llvm.memcpy.p0.p0.i64(ptr align 8 %0, ptr align 8 %10, i64 32, i1 false), !tbaa.struct !102
  store i32 1, ptr %12, align 4
  br label %126

126:                                              ; preds = %125, %123
  call void @llvm.lifetime.end.p0(i64 32, ptr %10) #14
  ret void
}