; Function Attrs: mustprogress uwtable
define internal fastcc void @_ZL20iterative_adjustmentP8PJconstsPN12_GLOBAL__N_116xyzgridshiftDataERK8PJ_COORDd(ptr dead_on_unwind noalias nonnull writable align 8 %0, ptr noundef %1, ptr noundef %2, ptr noundef nonnull readonly align 8 captures(none) dereferenceable(32) %3, double noundef %4) unnamed_addr #0 {
  %6 = alloca %union.PJ_COORD, align 8
  %7 = alloca %struct.PJ_LPZ, align 8
  %8 = alloca %struct.PJ_XYZ, align 8
  %9 = alloca double, align 8
  %10 = alloca double, align 8
  %11 = alloca double, align 8
  %.sroa.0.0.copyload = load double, ptr %3, align 8
  %.sroa.8.0..sroa_idx = getelementptr inbounds nuw i8, ptr %3, i64 8
  %.sroa.8.0.copyload = load double, ptr %.sroa.8.0..sroa_idx, align 8
  %.sroa.11.0..sroa_idx = getelementptr inbounds nuw i8, ptr %3, i64 16
  %.sroa.11.0.copyload = load double, ptr %.sroa.11.0..sroa_idx, align 8
  %.sroa.14.0..sroa_idx = getelementptr inbounds nuw i8, ptr %3, i64 24
  %.sroa.14.0.copyload = load double, ptr %.sroa.14.0..sroa_idx, align 8, !tbaa !99
  %.sroa.8.0..sroa_idx10 = getelementptr inbounds nuw i8, ptr %8, i64 8
  %.sroa.11.0..sroa_idx15 = getelementptr inbounds nuw i8, ptr %8, i64 16
  br label %12

12:                                               ; preds = %15, %5
  %.sroa.11.068 = phi double [ %.sroa.11.0.copyload, %5 ], [ %36, %15 ]
  %.03667 = phi i32 [ 0, %5 ], [ %38, %15 ]
  %.sroa.0.066 = phi double [ %.sroa.0.0.copyload, %5 ], [ %34, %15 ]
  %.sroa.8.065 = phi double [ %.sroa.8.0.copyload, %5 ], [ %35, %15 ]
  call void @llvm.lifetime.start.p0(i64 32, ptr nonnull %6) #12
  call void @llvm.lifetime.start.p0(i64 24, ptr nonnull %7) #12
  store double %.sroa.0.066, ptr %8, align 8, !tbaa !95
  store double %.sroa.8.065, ptr %.sroa.8.0..sroa_idx10, align 8, !tbaa !95
  store double %.sroa.11.068, ptr %.sroa.11.0..sroa_idx15, align 8, !tbaa !95
  %13 = load ptr, ptr %2, align 8, !tbaa !40
  call void @_Z8pj_inv3d6PJ_XYZP8PJconsts(ptr dead_on_unwind nonnull writable sret(%struct.PJ_LPZ) align 8 %7, ptr noundef nonnull byval(%struct.PJ_XYZ) align 8 %8, ptr noundef %13)
  call void @llvm.memcpy.p0.p0.i64(ptr noundef nonnull align 8 dereferenceable(24) %6, ptr noundef nonnull align 8 dereferenceable(24) %7, i64 24, i1 false), !tbaa.struct !94
  call void @llvm.lifetime.end.p0(i64 24, ptr nonnull %7) #12
  call void @llvm.lifetime.start.p0(i64 8, ptr nonnull %9) #12
  call void @llvm.lifetime.start.p0(i64 8, ptr nonnull %10) #12
  call void @llvm.lifetime.start.p0(i64 8, ptr nonnull %11) #12
  %14 = call fastcc noundef zeroext i1 @_ZL15get_grid_valuesP8PJconstsPN12_GLOBAL__N_116xyzgridshiftDataERK5PJ_LPRdS7_S7_(ptr noundef %1, ptr noundef nonnull %2, ptr noundef nonnull align 8 dereferenceable(16) %6, ptr noundef nonnull align 8 dereferenceable(8) %9, ptr noundef nonnull align 8 dereferenceable(8) %10, ptr noundef nonnull align 8 dereferenceable(8) %11)
  br i1 %14, label %15, label %39

15:                                               ; preds = %12
  %16 = load double, ptr %9, align 8, !tbaa !95
  %17 = fmul double %4, %16
  %18 = load double, ptr %10, align 8, !tbaa !95
  %19 = fmul double %4, %18
  %20 = load double, ptr %11, align 8, !tbaa !95
  %21 = fmul double %4, %20
  %22 = load double, ptr %3, align 8, !tbaa !99
  %23 = fsub double %.sroa.0.066, %22
  %24 = fsub double %23, %17
  %25 = load double, ptr %.sroa.8.0..sroa_idx, align 8, !tbaa !99
  %26 = fsub double %.sroa.8.065, %25
  %27 = fsub double %26, %19
  %28 = fmul double %27, %27
  %29 = call double @llvm.fmuladd.f64(double %24, double %24, double %28)
  %30 = load double, ptr %.sroa.11.0..sroa_idx, align 8, !tbaa !99
  %31 = fsub double %.sroa.11.068, %30
  %32 = fsub double %31, %21
  %33 = call double @llvm.fmuladd.f64(double %32, double %32, double %29)
  %34 = fadd double %17, %22
  %35 = fadd double %19, %25
  %36 = fadd double %21, %30
  %37 = fcmp olt double %33, 1.000000e-10
  call void @llvm.lifetime.end.p0(i64 8, ptr nonnull %11) #12
  call void @llvm.lifetime.end.p0(i64 8, ptr nonnull %10) #12
  call void @llvm.lifetime.end.p0(i64 8, ptr nonnull %9) #12
  call void @llvm.lifetime.end.p0(i64 32, ptr nonnull %6) #12
  %38 = add nuw nsw i32 %.03667, 1
  %exitcond.not = icmp eq i32 %38, 10
  %or.cond = select i1 %37, i1 true, i1 %exitcond.not
  br i1 %or.cond, label %.thread42, label %12, !llvm.loop !104

39:                                               ; preds = %12
  call void @_Z16proj_coord_errorv(ptr dead_on_unwind nonnull writable sret(%union.PJ_COORD) align 8 %0)
  call void @llvm.lifetime.end.p0(i64 8, ptr nonnull %11) #12
  call void @llvm.lifetime.end.p0(i64 8, ptr nonnull %10) #12
  call void @llvm.lifetime.end.p0(i64 8, ptr nonnull %9) #12
  call void @llvm.lifetime.end.p0(i64 32, ptr nonnull %6) #12
  br label %40

.thread42:                                        ; preds = %15
  store double %34, ptr %0, align 8
  %.sroa.8.0..sroa_idx8 = getelementptr inbounds nuw i8, ptr %0, i64 8
  store double %35, ptr %.sroa.8.0..sroa_idx8, align 8
  %.sroa.11.0..sroa_idx13 = getelementptr inbounds nuw i8, ptr %0, i64 16
  store double %36, ptr %.sroa.11.0..sroa_idx13, align 8
  %.sroa.14.0..sroa_idx18 = getelementptr inbounds nuw i8, ptr %0, i64 24
  store double %.sroa.14.0.copyload, ptr %.sroa.14.0..sroa_idx18, align 8, !tbaa !99
  br label %40

40:                                               ; preds = %39, %.thread42
  ret void
}